target datalayout = "e-m:e-p270:32:32-p271:32:32-p272:64:64-i64:64-i128:128-f80:128-n8:16:32:64-S128"
target triple = "x86_64-pc-linux-gnu"

%struct.bf_key_st = type { [18 x i32], [1024 x i32] }

; Function Attrs: nounwind uwtable
define void @BF_set_key(ptr noundef %0, i32 noundef %1, ptr noundef %2) #0 {
  %4 = alloca ptr, align 8
  %5 = alloca i32, align 4
  %6 = alloca ptr, align 8
  %7 = alloca i32, align 4
  %8 = alloca ptr, align 8
  %9 = alloca i32, align 4
  %10 = alloca [2 x i32], align 4
  %11 = alloca ptr, align 8
  %12 = alloca ptr, align 8
  store ptr %0, ptr %4, align 8, !tbaa !3
  store i32 %1, ptr %5, align 4, !tbaa !8
  store ptr %2, ptr %6, align 8, !tbaa !10
  call void @llvm.lifetime.start.p0(i64 4, ptr %7) #4
  call void @llvm.lifetime.start.p0(i64 8, ptr %8) #4
  call void @llvm.lifetime.start.p0(i64 4, ptr %9) #4
  call void @llvm.lifetime.start.p0(i64 8, ptr %10) #4
  call void @llvm.lifetime.start.p0(i64 8, ptr %11) #4
  call void @llvm.lifetime.start.p0(i64 8, ptr %12) #4
  %13 = load ptr, ptr %4, align 8, !tbaa !3
  call void @llvm.memcpy.p0.p0.i64(ptr align 4 %13, ptr align 4 @bf_init, i64 4168, i1 false)
  %14 = load ptr, ptr %4, align 8, !tbaa !3
  %15 = getelementptr inbounds nuw %struct.bf_key_st, ptr %14, i32 0, i32 0
  %16 = getelementptr inbounds [18 x i32], ptr %15, i64 0, i64 0
  store ptr %16, ptr %8, align 8, !tbaa !12
  %17 = load i32, ptr %5, align 4, !tbaa !8
  %18 = icmp sgt i32 %17, 72
  br i1 %18, label %19, label %20

19:                                               ; preds = %3
  store i32 72, ptr %5, align 4, !tbaa !8
  br label %20

20:                                               ; preds = %19, %3
  %21 = load ptr, ptr %6, align 8, !tbaa !10
  store ptr %21, ptr %11, align 8, !tbaa !10
  %22 = load ptr, ptr %6, align 8, !tbaa !10
  %23 = load i32, ptr %5, align 4, !tbaa !8
  %24 = sext i32 %23 to i64
  %25 = getelementptr inbounds i8, ptr %22, i64 %24
  store ptr %25, ptr %12, align 8, !tbaa !10
  store i32 0, ptr %7, align 4, !tbaa !8
  br label %26

26:                                               ; preds = %89, %20
  %27 = load i32, ptr %7, align 4, !tbaa !8
  %28 = icmp slt i32 %27, 18
  br i1 %28, label %29, label %92

29:                                               ; preds = %26
  %30 = load ptr, ptr %11, align 8, !tbaa !10
  %31 = getelementptr inbounds nuw i8, ptr %30, i32 1
  store ptr %31, ptr %11, align 8, !tbaa !10
  %32 = load i8, ptr %30, align 1, !tbaa !14
  %33 = zext i8 %32 to i32
  store i32 %33, ptr %9, align 4, !tbaa !8
  %34 = load ptr, ptr %11, align 8, !tbaa !10
  %35 = load ptr, ptr %12, align 8, !tbaa !10
  %36 = icmp uge ptr %34, %35
  br i1 %36, label %37, label %39

37:                                               ; preds = %29
  %38 = load ptr, ptr %6, align 8, !tbaa !10
  store ptr %38, ptr %11, align 8, !tbaa !10
  br label %39

39:                                               ; preds = %37, %29
  %40 = load i32, ptr %9, align 4, !tbaa !8
  %41 = shl i32 %40, 8
  store i32 %41, ptr %9, align 4, !tbaa !8
  %42 = load ptr, ptr %11, align 8, !tbaa !10
  %43 = getelementptr inbounds nuw i8, ptr %42, i32 1
  store ptr %43, ptr %11, align 8, !tbaa !10
  %44 = load i8, ptr %42, align 1, !tbaa !14
  %45 = zext i8 %44 to i32
  %46 = load i32, ptr %9, align 4, !tbaa !8
  %47 = or i32 %46, %45
  store i32 %47, ptr %9, align 4, !tbaa !8
  %48 = load ptr, ptr %11, align 8, !tbaa !10
  %49 = load ptr, ptr %12, align 8, !tbaa !10
  %50 = icmp uge ptr %48, %49
  br i1 %50, label %51, label %53

51:                                               ; preds = %39
  %52 = load ptr, ptr %6, align 8, !tbaa !10
  store ptr %52, ptr %11, align 8, !tbaa !10
  br label %53

53:                                               ; preds = %51, %39
  %54 = load i32, ptr %9, align 4, !tbaa !8
  %55 = shl i32 %54, 8
  store i32 %55, ptr %9, align 4, !tbaa !8
  %56 = load ptr, ptr %11, align 8, !tbaa !10
  %57 = getelementptr inbounds nuw i8, ptr %56, i32 1
  store ptr %57, ptr %11, align 8, !tbaa !10
  %58 = load i8, ptr %56, align 1, !tbaa !14
  %59 = zext i8 %58 to i32
  %60 = load i32, ptr %9, align 4, !tbaa !8
  %61 = or i32 %60, %59
  store i32 %61, ptr %9, align 4, !tbaa !8
  %62 = load ptr, ptr %11, align 8, !tbaa !10
  %63 = load ptr, ptr %12, align 8, !tbaa !10
  %64 = icmp uge ptr %62, %63
  br i1 %64, label %65, label %67

65:                                               ; preds = %53
  %66 = load ptr, ptr %6, align 8, !tbaa !10
  store ptr %66, ptr %11, align 8, !tbaa !10
  br label %67

67:                                               ; preds = %65, %53
  %68 = load i32, ptr %9, align 4, !tbaa !8
  %69 = shl i32 %68, 8
  store i32 %69, ptr %9, align 4, !tbaa !8
  %70 = load ptr, ptr %11, align 8, !tbaa !10
  %71 = getelementptr inbounds nuw i8, ptr %70, i32 1
  store ptr %71, ptr %11, align 8, !tbaa !10
  %72 = load i8, ptr %70, align 1, !tbaa !14
  %73 = zext i8 %72 to i32
  %74 = load i32, ptr %9, align 4, !tbaa !8
  %75 = or i32 %74, %73
  store i32 %75, ptr %9, align 4, !tbaa !8
  %76 = load ptr, ptr %11, align 8, !tbaa !10
  %77 = load ptr, ptr %12, align 8, !tbaa !10
  %78 = icmp uge ptr %76, %77
  br i1 %78, label %79, label %81

79:                                               ; preds = %67
  %80 = load ptr, ptr %6, align 8, !tbaa !10
  store ptr %80, ptr %11, align 8, !tbaa !10
  br label %81

81:                                               ; preds = %79, %67
  %82 = load i32, ptr %9, align 4, !tbaa !8
  %83 = load ptr, ptr %8, align 8, !tbaa !12
  %84 = load i32, ptr %7, align 4, !tbaa !8
  %85 = sext i32 %84 to i64
  %86 = getelementptr inbounds i32, ptr %83, i64 %85
  %87 = load i32, ptr %86, align 4, !tbaa !8
  %88 = xor i32 %87, %82
  store i32 %88, ptr %86, align 4, !tbaa !8
  br label %89

89:                                               ; preds = %81
  %90 = load i32, ptr %7, align 4, !tbaa !8
  %91 = add nsw i32 %90, 1
  store i32 %91, ptr %7, align 4, !tbaa !8
  br label %26, !llvm.loop !15

92:                                               ; preds = %26
  %93 = getelementptr inbounds [2 x i32], ptr %10, i64 0, i64 0
  store i32 0, ptr %93, align 4, !tbaa !8
  %94 = getelementptr inbounds [2 x i32], ptr %10, i64 0, i64 1
  store i32 0, ptr %94, align 4, !tbaa !8
  store i32 0, ptr %7, align 4, !tbaa !8
  br label %95

95:                                               ; preds = %114, %92
  %96 = load i32, ptr %7, align 4, !tbaa !8
  %97 = icmp slt i32 %96, 18
  br i1 %97, label %98, label %117

98:                                               ; preds = %95
  %99 = getelementptr inbounds [2 x i32], ptr %10, i64 0, i64 0
  %100 = load ptr, ptr %4, align 8, !tbaa !3
  call void @BF_encrypt(ptr noundef %99, ptr noundef %100)
  %101 = getelementptr inbounds [2 x i32], ptr %10, i64 0, i64 0
  %102 = load i32, ptr %101, align 4, !tbaa !8
  %103 = load ptr, ptr %8, align 8, !tbaa !12
  %104 = load i32, ptr %7, align 4, !tbaa !8
  %105 = sext i32 %104 to i64
  %106 = getelementptr inbounds i32, ptr %103, i64 %105
  store i32 %102, ptr %106, align 4, !tbaa !8
  %107 = getelementptr inbounds [2 x i32], ptr %10, i64 0, i64 1
  %108 = load i32, ptr %107, align 4, !tbaa !8
  %109 = load ptr, ptr %8, align 8, !tbaa !12
  %110 = load i32, ptr %7, align 4, !tbaa !8
  %111 = add nsw i32 %110, 1
  %112 = sext i32 %111 to i64
  %113 = getelementptr inbounds i32, ptr %109, i64 %112
  store i32 %108, ptr %113, align 4, !tbaa !8
  br label %114

114:                                              ; preds = %98
  %115 = load i32, ptr %7, align 4, !tbaa !8
  %116 = add nsw i32 %115, 2
  store i32 %116, ptr %7, align 4, !tbaa !8
  br label %95, !llvm.loop !17

117:                                              ; preds = %95
  %118 = load ptr, ptr %4, align 8, !tbaa !3
  %119 = getelementptr inbounds nuw %struct.bf_key_st, ptr %118, i32 0, i32 1
  %120 = getelementptr inbounds [1024 x i32], ptr %119, i64 0, i64 0
  store ptr %120, ptr %8, align 8, !tbaa !12
  store i32 0, ptr %7, align 4, !tbaa !8
  br label %121

121:                                              ; preds = %140, %117
  %122 = load i32, ptr %7, align 4, !tbaa !8
  %123 = icmp slt i32 %122, 1024
  br i1 %123, label %124, label %143

124:                                              ; preds = %121
  %125 = getelementptr inbounds [2 x i32], ptr %10, i64 0, i64 0
  %126 = load ptr, ptr %4, align 8, !tbaa !3
  call void @BF_encrypt(ptr noundef %125, ptr noundef %126)
  %127 = getelementptr inbounds [2 x i32], ptr %10, i64 0, i64 0
  %128 = load i32, ptr %127, align 4, !tbaa !8
  %129 = load ptr, ptr %8, align 8, !tbaa !12
  %130 = load i32, ptr %7, align 4, !tbaa !8
  %131 = sext i32 %130 to i64
  %132 = getelementptr inbounds i32, ptr %129, i64 %131
  store i32 %128, ptr %132, align 4, !tbaa !8
  %133 = getelementptr inbounds [2 x i32], ptr %10, i64 0, i64 1
  %134 = load i32, ptr %133, align 4, !tbaa !8
  %135 = load ptr, ptr %8, align 8, !tbaa !12
  %136 = load i32, ptr %7, align 4, !tbaa !8
  %137 = add nsw i32 %136, 1
  %138 = sext i32 %137 to i64
  %139 = getelementptr inbounds i32, ptr %135, i64 %138
  store i32 %134, ptr %139, align 4, !tbaa !8
  br label %140

140:                                              ; preds = %124
  %141 = load i32, ptr %7, align 4, !tbaa !8
  %142 = add nsw i32 %141, 2
  store i32 %142, ptr %7, align 4, !tbaa !8
  br label %121, !llvm.loop !18

143:                                              ; preds = %121
  call void @llvm.lifetime.end.p0(i64 8, ptr %12) #4
  call void @llvm.lifetime.end.p0(i64 8, ptr %11) #4
  call void @llvm.lifetime.end.p0(i64 8, ptr %10) #4
  call void @llvm.lifetime.end.p0(i64 4, ptr %9) #4
  call void @llvm.lifetime.end.p0(i64 8, ptr %8) #4
  call void @llvm.lifetime.end.p0(i64 4, ptr %7) #4
  ret void
}