; Function Attrs: nounwind uwtable
define void @BF_set_key(ptr noundef initializes((0, 4168)) %0, i32 noundef %1, ptr noundef readonly captures(address) %2) local_unnamed_addr #0 {
  %4 = alloca [2 x i32], align 4
  call void @llvm.lifetime.start.p0(i64 8, ptr nonnull %4) #5
  tail call void @llvm.memcpy.p0.p0.i64(ptr noundef nonnull align 4 dereferenceable(4168) %0, ptr noundef nonnull align 4 dereferenceable(4168) @bf_init, i64 4168, i1 false)
  %spec.store.select = tail call i32 @llvm.smin.i32(i32 %1, i32 72)
  %5 = sext i32 %spec.store.select to i64
  %6 = getelementptr inbounds i8, ptr %2, i64 %5
  br label %7

7:                                                ; preds = %3, %7
  %indvars.iv = phi i64 [ 0, %3 ], [ %indvars.iv.next, %7 ]
  %.04757 = phi ptr [ %2, %3 ], [ %.4, %7 ]
  %8 = getelementptr inbounds nuw i8, ptr %.04757, i64 1
  %9 = load i8, ptr %.04757, align 1, !tbaa !3
  %10 = zext i8 %9 to i32
  %.not = icmp ult ptr %8, %6
  %spec.select = select i1 %.not, ptr %8, ptr %2
  %11 = getelementptr inbounds nuw i8, ptr %spec.select, i64 1
  %12 = load i8, ptr %spec.select, align 1, !tbaa !3
  %13 = zext i8 %12 to i32
  %.not54 = icmp ult ptr %11, %6
  %.249 = select i1 %.not54, ptr %11, ptr %2
  %14 = shl nuw nsw i32 %10, 16
  %15 = shl nuw nsw i32 %13, 8
  %16 = or disjoint i32 %15, %14
  %17 = getelementptr inbounds nuw i8, ptr %.249, i64 1
  %18 = load i8, ptr %.249, align 1, !tbaa !3
  %19 = zext i8 %18 to i32
  %20 = or disjoint i32 %16, %19
  %.not55 = icmp ult ptr %17, %6
  %.3 = select i1 %.not55, ptr %17, ptr %2
  %21 = shl nuw i32 %20, 8
  %22 = getelementptr inbounds nuw i8, ptr %.3, i64 1
  %23 = load i8, ptr %.3, align 1, !tbaa !3
  %24 = zext i8 %23 to i32
  %25 = or disjoint i32 %21, %24
  %.not56 = icmp ult ptr %22, %6
  %.4 = select i1 %.not56, ptr %22, ptr %2
  %26 = getelementptr inbounds nuw i32, ptr %0, i64 %indvars.iv
  %27 = load i32, ptr %26, align 4, !tbaa !6
  %28 = xor i32 %25, %27
  store i32 %28, ptr %26, align 4, !tbaa !6
  %indvars.iv.next = add nuw nsw i64 %indvars.iv, 1
  %exitcond.not = icmp eq i64 %indvars.iv.next, 18
  br i1 %exitcond.not, label %29, label %7, !llvm.loop !8

29:                                               ; preds = %7
  store i32 0, ptr %4, align 4, !tbaa !6
  %30 = getelementptr inbounds nuw i8, ptr %4, i64 4
  store i32 0, ptr %30, align 4, !tbaa !6
  br label %31

31:                                               ; preds = %29, %31
  %indvars.iv62 = phi i64 [ 0, %29 ], [ %indvars.iv.next63, %31 ]
  call void @BF_encrypt(ptr noundef nonnull %4, ptr noundef nonnull %0) #5
  %32 = load i32, ptr %4, align 4, !tbaa !6
  %33 = getelementptr inbounds nuw i32, ptr %0, i64 %indvars.iv62
  store i32 %32, ptr %33, align 4, !tbaa !6
  %34 = load i32, ptr %30, align 4, !tbaa !6
  %35 = or disjoint i64 %indvars.iv62, 1
  %36 = getelementptr inbounds nuw i32, ptr %0, i64 %35
  store i32 %34, ptr %36, align 4, !tbaa !6
  %indvars.iv.next63 = add nuw nsw i64 %indvars.iv62, 2
  %37 = icmp samesign ult i64 %indvars.iv62, 16
  br i1 %37, label %31, label %38, !llvm.loop !10

38:                                               ; preds = %31
  %39 = getelementptr inbounds nuw i8, ptr %0, i64 72
  br label %40

40:                                               ; preds = %38, %40
  %indvars.iv65 = phi i64 [ 0, %38 ], [ %indvars.iv.next66, %40 ]
  call void @BF_encrypt(ptr noundef nonnull %4, ptr noundef nonnull %0) #5
  %41 = load i32, ptr %4, align 4, !tbaa !6
  %42 = getelementptr inbounds nuw i32, ptr %39, i64 %indvars.iv65
  store i32 %41, ptr %42, align 4, !tbaa !6
  %43 = load i32, ptr %30, align 4, !tbaa !6
  %44 = or disjoint i64 %indvars.iv65, 1
  %45 = getelementptr inbounds nuw i32, ptr %39, i64 %44
  store i32 %43, ptr %45, align 4, !tbaa !6
  %indvars.iv.next66 = add nuw nsw i64 %indvars.iv65, 2
  %46 = icmp samesign ult i64 %indvars.iv65, 1022
  br i1 %46, label %40, label %47, !llvm.loop !11

47:                                               ; preds = %40
  call void @llvm.lifetime.end.p0(i64 8, ptr nonnull %4) #5
  ret void
}